{
   ignore_new_delete_overloaded_by_cpputest
   Memcheck:Free
   fun:_ZdlPvm
   fun:_ZN50TEST_Strings_LtrimLeavesEmptyStringsUnchanged_TestD0Ev
   fun:_ZN10UtestShell11destroyTestEP5Utest
   fun:_ZN10UtestShell26runOneTestInCurrentProcessEP10TestPluginR10TestResult
   fun:helperDoRunOneTestInCurrentProcess
   fun:PlatformSpecificSetJmpImplementation
   fun:_ZN10UtestShell10runOneTestEP10TestPluginR10TestResult
   fun:_ZN12TestRegistry11runAllTestsER10TestResult
   fun:_ZN21CommandLineTestRunner11runAllTestsEv
   fun:_ZN21CommandLineTestRunner15runAllTestsMainEv
   fun:_ZN21CommandLineTestRunner11RunAllTestsEiPKPKc
   fun:_ZN21CommandLineTestRunner11RunAllTestsEiPPc
}
{
   ignore_new_delete_overloaded_by_cpputest
   Memcheck:Addr4
   fun:_ZN22MemoryLeakDetectorList10isInPeriodEP22MemoryLeakDetectorNode13MemLeakPeriod
   fun:_ZN22MemoryLeakDetectorList13getTotalLeaksE13MemLeakPeriod
   fun:_ZN23MemoryLeakDetectorTable13getTotalLeaksE13MemLeakPeriod
   fun:_ZN18MemoryLeakDetector16totalMemoryLeaksE13MemLeakPeriod
   fun:_ZN23MemoryLeakWarningPlugin14postTestActionER10UtestShellR10TestResult
   fun:_ZN10TestPlugin20runAllPostTestActionER10UtestShellR10TestResult
   fun:_ZN10TestPlugin20runAllPostTestActionER10UtestShellR10TestResult
   fun:_ZN10UtestShell26runOneTestInCurrentProcessEP10TestPluginR10TestResult
   fun:helperDoRunOneTestInCurrentProcess
   fun:PlatformSpecificSetJmpImplementation
   fun:_ZN10UtestShell10runOneTestEP10TestPluginR10TestResult
   fun:_ZN12TestRegistry11runAllTestsER10TestResult
}
{
   ignore_new_delete_overloaded_by_cpputest
   Memcheck:Addr8
   fun:_ZN22MemoryLeakDetectorList13getTotalLeaksE13MemLeakPeriod
   fun:_ZN23MemoryLeakDetectorTable13getTotalLeaksE13MemLeakPeriod
   fun:_ZN18MemoryLeakDetector16totalMemoryLeaksE13MemLeakPeriod
   fun:_ZN23MemoryLeakWarningPlugin14postTestActionER10UtestShellR10TestResult
   fun:_ZN10TestPlugin20runAllPostTestActionER10UtestShellR10TestResult
   fun:_ZN10TestPlugin20runAllPostTestActionER10UtestShellR10TestResult
   fun:_ZN10UtestShell26runOneTestInCurrentProcessEP10TestPluginR10TestResult
   fun:helperDoRunOneTestInCurrentProcess
   fun:PlatformSpecificSetJmpImplementation
   fun:_ZN10UtestShell10runOneTestEP10TestPluginR10TestResult
   fun:_ZN12TestRegistry11runAllTestsER10TestResult
   fun:_ZN21CommandLineTestRunner11runAllTestsEv
}
{
   ignore_new_delete_overloaded_by_cpputest
   Memcheck:Addr4
   fun:_ZN22MemoryLeakDetectorList10isInPeriodEP22MemoryLeakDetectorNode13MemLeakPeriod
   fun:_ZN22MemoryLeakDetectorList11getLeakFromEP22MemoryLeakDetectorNode13MemLeakPeriod
   fun:_ZN22MemoryLeakDetectorList12getFirstLeakE13MemLeakPeriod
   fun:_ZN23MemoryLeakDetectorTable12getFirstLeakE13MemLeakPeriod
   fun:_ZN18MemoryLeakDetector25ConstructMemoryLeakReportE13MemLeakPeriod
   fun:_ZN18MemoryLeakDetector6reportE13MemLeakPeriod
   fun:_ZN23MemoryLeakWarningPlugin14postTestActionER10UtestShellR10TestResult
   fun:_ZN10TestPlugin20runAllPostTestActionER10UtestShellR10TestResult
   fun:_ZN10TestPlugin20runAllPostTestActionER10UtestShellR10TestResult
   fun:_ZN10UtestShell26runOneTestInCurrentProcessEP10TestPluginR10TestResult
   fun:helperDoRunOneTestInCurrentProcess
   fun:PlatformSpecificSetJmpImplementation
}
{
   ignore_new_delete_overloaded_by_cpputest
   Memcheck:Addr8
   fun:_ZN28MemoryLeakOutputStringBuffer16reportMemoryLeakEP22MemoryLeakDetectorNode
   fun:_ZN18MemoryLeakDetector25ConstructMemoryLeakReportE13MemLeakPeriod
   fun:_ZN18MemoryLeakDetector6reportE13MemLeakPeriod
   fun:_ZN23MemoryLeakWarningPlugin14postTestActionER10UtestShellR10TestResult
   fun:_ZN10TestPlugin20runAllPostTestActionER10UtestShellR10TestResult
   fun:_ZN10TestPlugin20runAllPostTestActionER10UtestShellR10TestResult
   fun:_ZN10UtestShell26runOneTestInCurrentProcessEP10TestPluginR10TestResult
   fun:helperDoRunOneTestInCurrentProcess
   fun:PlatformSpecificSetJmpImplementation
   fun:_ZN10UtestShell10runOneTestEP10TestPluginR10TestResult
   fun:_ZN12TestRegistry11runAllTestsER10TestResult
   fun:_ZN21CommandLineTestRunner11runAllTestsEv
}
{
   ignore_new_delete_overloaded_by_cpputest
   Memcheck:Addr4
   fun:_ZN28MemoryLeakOutputStringBuffer16reportMemoryLeakEP22MemoryLeakDetectorNode
   fun:_ZN18MemoryLeakDetector25ConstructMemoryLeakReportE13MemLeakPeriod
   fun:_ZN18MemoryLeakDetector6reportE13MemLeakPeriod
   fun:_ZN23MemoryLeakWarningPlugin14postTestActionER10UtestShellR10TestResult
   fun:_ZN10TestPlugin20runAllPostTestActionER10UtestShellR10TestResult
   fun:_ZN10TestPlugin20runAllPostTestActionER10UtestShellR10TestResult
   fun:_ZN10UtestShell26runOneTestInCurrentProcessEP10TestPluginR10TestResult
   fun:helperDoRunOneTestInCurrentProcess
   fun:PlatformSpecificSetJmpImplementation
   fun:_ZN10UtestShell10runOneTestEP10TestPluginR10TestResult
   fun:_ZN12TestRegistry11runAllTestsER10TestResult
   fun:_ZN21CommandLineTestRunner11runAllTestsEv
}
{
   ignore_new_delete_overloaded_by_cpputest
   Memcheck:Addr1
   fun:_ZN18SimpleStringBuffer13addMemoryDumpEPKvm
   fun:_ZN28MemoryLeakOutputStringBuffer16reportMemoryLeakEP22MemoryLeakDetectorNode
   fun:_ZN18MemoryLeakDetector25ConstructMemoryLeakReportE13MemLeakPeriod
   fun:_ZN18MemoryLeakDetector6reportE13MemLeakPeriod
   fun:_ZN23MemoryLeakWarningPlugin14postTestActionER10UtestShellR10TestResult
   fun:_ZN10TestPlugin20runAllPostTestActionER10UtestShellR10TestResult
   fun:_ZN10TestPlugin20runAllPostTestActionER10UtestShellR10TestResult
   fun:_ZN10UtestShell26runOneTestInCurrentProcessEP10TestPluginR10TestResult
   fun:helperDoRunOneTestInCurrentProcess
   fun:PlatformSpecificSetJmpImplementation
   fun:_ZN10UtestShell10runOneTestEP10TestPluginR10TestResult
   fun:_ZN12TestRegistry11runAllTestsER10TestResult
}
{
   ignore_new_delete_overloaded_by_cpputest
   Memcheck:Addr8
   fun:_ZN23MemoryLeakDetectorTable11getNextLeakEP22MemoryLeakDetectorNode13MemLeakPeriod
   fun:_ZN18MemoryLeakDetector25ConstructMemoryLeakReportE13MemLeakPeriod
   fun:_ZN18MemoryLeakDetector6reportE13MemLeakPeriod
   fun:_ZN23MemoryLeakWarningPlugin14postTestActionER10UtestShellR10TestResult
   fun:_ZN10TestPlugin20runAllPostTestActionER10UtestShellR10TestResult
   fun:_ZN10TestPlugin20runAllPostTestActionER10UtestShellR10TestResult
   fun:_ZN10UtestShell26runOneTestInCurrentProcessEP10TestPluginR10TestResult
   fun:helperDoRunOneTestInCurrentProcess
   fun:PlatformSpecificSetJmpImplementation
   fun:_ZN10UtestShell10runOneTestEP10TestPluginR10TestResult
   fun:_ZN12TestRegistry11runAllTestsER10TestResult
   fun:_ZN21CommandLineTestRunner11runAllTestsEv
}
{
   ignore_new_delete_overloaded_by_cpputest
   Memcheck:Addr8
   fun:_ZN22MemoryLeakDetectorList11getNextLeakEP22MemoryLeakDetectorNode13MemLeakPeriod
   fun:_ZN23MemoryLeakDetectorTable11getNextLeakEP22MemoryLeakDetectorNode13MemLeakPeriod
   fun:_ZN18MemoryLeakDetector25ConstructMemoryLeakReportE13MemLeakPeriod
   fun:_ZN18MemoryLeakDetector6reportE13MemLeakPeriod
   fun:_ZN23MemoryLeakWarningPlugin14postTestActionER10UtestShellR10TestResult
   fun:_ZN10TestPlugin20runAllPostTestActionER10UtestShellR10TestResult
   fun:_ZN10TestPlugin20runAllPostTestActionER10UtestShellR10TestResult
   fun:_ZN10UtestShell26runOneTestInCurrentProcessEP10TestPluginR10TestResult
   fun:helperDoRunOneTestInCurrentProcess
   fun:PlatformSpecificSetJmpImplementation
   fun:_ZN10UtestShell10runOneTestEP10TestPluginR10TestResult
   fun:_ZN12TestRegistry11runAllTestsER10TestResult
}
{
   ignore_new_delete_overloaded_by_cpputest
   Memcheck:Addr4
   fun:_ZN18MemoryLeakDetector42markCheckingPeriodLeaksAsNonCheckingPeriodEv
   fun:_ZN23MemoryLeakWarningPlugin14postTestActionER10UtestShellR10TestResult
   fun:_ZN10TestPlugin20runAllPostTestActionER10UtestShellR10TestResult
   fun:_ZN10TestPlugin20runAllPostTestActionER10UtestShellR10TestResult
   fun:_ZN10UtestShell26runOneTestInCurrentProcessEP10TestPluginR10TestResult
   fun:helperDoRunOneTestInCurrentProcess
   fun:PlatformSpecificSetJmpImplementation
   fun:_ZN10UtestShell10runOneTestEP10TestPluginR10TestResult
   fun:_ZN12TestRegistry11runAllTestsER10TestResult
   fun:_ZN21CommandLineTestRunner11runAllTestsEv
   fun:_ZN21CommandLineTestRunner15runAllTestsMainEv
   fun:_ZN21CommandLineTestRunner11RunAllTestsEiPKPKc
}
{
   ignore_new_delete_overloaded_by_cpputest
   Memcheck:Addr8
   fun:_ZN23MemoryLeakDetectorTable11getNextLeakEP22MemoryLeakDetectorNode13MemLeakPeriod
   fun:_ZN18MemoryLeakDetector42markCheckingPeriodLeaksAsNonCheckingPeriodEv
   fun:_ZN23MemoryLeakWarningPlugin14postTestActionER10UtestShellR10TestResult
   fun:_ZN10TestPlugin20runAllPostTestActionER10UtestShellR10TestResult
   fun:_ZN10TestPlugin20runAllPostTestActionER10UtestShellR10TestResult
   fun:_ZN10UtestShell26runOneTestInCurrentProcessEP10TestPluginR10TestResult
   fun:helperDoRunOneTestInCurrentProcess
   fun:PlatformSpecificSetJmpImplementation
   fun:_ZN10UtestShell10runOneTestEP10TestPluginR10TestResult
   fun:_ZN12TestRegistry11runAllTestsER10TestResult
   fun:_ZN21CommandLineTestRunner11runAllTestsEv
   fun:_ZN21CommandLineTestRunner15runAllTestsMainEv
}
{
   ignore_new_delete_overloaded_by_cpputest
   Memcheck:Addr8
   fun:_ZN22MemoryLeakDetectorList11getNextLeakEP22MemoryLeakDetectorNode13MemLeakPeriod
   fun:_ZN23MemoryLeakDetectorTable11getNextLeakEP22MemoryLeakDetectorNode13MemLeakPeriod
   fun:_ZN18MemoryLeakDetector42markCheckingPeriodLeaksAsNonCheckingPeriodEv
   fun:_ZN23MemoryLeakWarningPlugin14postTestActionER10UtestShellR10TestResult
   fun:_ZN10TestPlugin20runAllPostTestActionER10UtestShellR10TestResult
   fun:_ZN10TestPlugin20runAllPostTestActionER10UtestShellR10TestResult
   fun:_ZN10UtestShell26runOneTestInCurrentProcessEP10TestPluginR10TestResult
   fun:helperDoRunOneTestInCurrentProcess
   fun:PlatformSpecificSetJmpImplementation
   fun:_ZN10UtestShell10runOneTestEP10TestPluginR10TestResult
   fun:_ZN12TestRegistry11runAllTestsER10TestResult
   fun:_ZN21CommandLineTestRunner11runAllTestsEv
}
{
   ignore_new_delete_overloaded_by_cpputest
   Memcheck:Free
   fun:_ZdlPvm
   fun:_ZN45TEST_Strings_LtrimRemovesLeftStartSpaces_TestD0Ev
   fun:_ZN10UtestShell11destroyTestEP5Utest
   fun:_ZN10UtestShell26runOneTestInCurrentProcessEP10TestPluginR10TestResult
   fun:helperDoRunOneTestInCurrentProcess
   fun:PlatformSpecificSetJmpImplementation
   fun:_ZN10UtestShell10runOneTestEP10TestPluginR10TestResult
   fun:_ZN12TestRegistry11runAllTestsER10TestResult
   fun:_ZN21CommandLineTestRunner11runAllTestsEv
   fun:_ZN21CommandLineTestRunner15runAllTestsMainEv
   fun:_ZN21CommandLineTestRunner11RunAllTestsEiPKPKc
   fun:_ZN21CommandLineTestRunner11RunAllTestsEiPPc
}
{
   ignore_new_delete_overloaded_by_cpputest
   Memcheck:Addr8
   fun:_ZN22MemoryLeakDetectorList11getLeakFromEP22MemoryLeakDetectorNode13MemLeakPeriod
   fun:_ZN22MemoryLeakDetectorList12getFirstLeakE13MemLeakPeriod
   fun:_ZN23MemoryLeakDetectorTable12getFirstLeakE13MemLeakPeriod
   fun:_ZN18MemoryLeakDetector25ConstructMemoryLeakReportE13MemLeakPeriod
   fun:_ZN18MemoryLeakDetector6reportE13MemLeakPeriod
   fun:_ZN23MemoryLeakWarningPlugin14postTestActionER10UtestShellR10TestResult
   fun:_ZN10TestPlugin20runAllPostTestActionER10UtestShellR10TestResult
   fun:_ZN10TestPlugin20runAllPostTestActionER10UtestShellR10TestResult
   fun:_ZN10UtestShell26runOneTestInCurrentProcessEP10TestPluginR10TestResult
   fun:helperDoRunOneTestInCurrentProcess
   fun:PlatformSpecificSetJmpImplementation
   fun:_ZN10UtestShell10runOneTestEP10TestPluginR10TestResult
}
{
   ignore_new_delete_overloaded_by_cpputest
   Memcheck:Addr8
   fun:_ZN22MemoryLeakDetectorList11getLeakFromEP22MemoryLeakDetectorNode13MemLeakPeriod
   fun:_ZN22MemoryLeakDetectorList12getFirstLeakE13MemLeakPeriod
   fun:_ZN23MemoryLeakDetectorTable12getFirstLeakE13MemLeakPeriod
   fun:_ZN18MemoryLeakDetector42markCheckingPeriodLeaksAsNonCheckingPeriodEv
   fun:_ZN23MemoryLeakWarningPlugin14postTestActionER10UtestShellR10TestResult
   fun:_ZN10TestPlugin20runAllPostTestActionER10UtestShellR10TestResult
   fun:_ZN10TestPlugin20runAllPostTestActionER10UtestShellR10TestResult
   fun:_ZN10UtestShell26runOneTestInCurrentProcessEP10TestPluginR10TestResult
   fun:helperDoRunOneTestInCurrentProcess
   fun:PlatformSpecificSetJmpImplementation
   fun:_ZN10UtestShell10runOneTestEP10TestPluginR10TestResult
   fun:_ZN12TestRegistry11runAllTestsER10TestResult
}
{
   ignore_new_delete_overloaded_by_cpputest
   Memcheck:Free
   fun:_ZdlPvm
   fun:_ZN50TEST_Strings_RtrimLeavesEmptyStringsUnchanged_TestD0Ev
   fun:_ZN10UtestShell11destroyTestEP5Utest
   fun:_ZN10UtestShell26runOneTestInCurrentProcessEP10TestPluginR10TestResult
   fun:helperDoRunOneTestInCurrentProcess
   fun:PlatformSpecificSetJmpImplementation
   fun:_ZN10UtestShell10runOneTestEP10TestPluginR10TestResult
   fun:_ZN12TestRegistry11runAllTestsER10TestResult
   fun:_ZN21CommandLineTestRunner11runAllTestsEv
   fun:_ZN21CommandLineTestRunner15runAllTestsMainEv
   fun:_ZN21CommandLineTestRunner11RunAllTestsEiPKPKc
   fun:_ZN21CommandLineTestRunner11RunAllTestsEiPPc
}
{
   ignore_new_delete_overloaded_by_cpputest
   Memcheck:Addr4
   fun:_ZN22MemoryLeakDetectorList10isInPeriodEP22MemoryLeakDetectorNode13MemLeakPeriod
   fun:_ZN22MemoryLeakDetectorList11getLeakFromEP22MemoryLeakDetectorNode13MemLeakPeriod
   fun:_ZN22MemoryLeakDetectorList12getFirstLeakE13MemLeakPeriod
   fun:_ZN23MemoryLeakDetectorTable11getNextLeakEP22MemoryLeakDetectorNode13MemLeakPeriod
   fun:_ZN18MemoryLeakDetector25ConstructMemoryLeakReportE13MemLeakPeriod
   fun:_ZN18MemoryLeakDetector6reportE13MemLeakPeriod
   fun:_ZN23MemoryLeakWarningPlugin14postTestActionER10UtestShellR10TestResult
   fun:_ZN10TestPlugin20runAllPostTestActionER10UtestShellR10TestResult
   fun:_ZN10TestPlugin20runAllPostTestActionER10UtestShellR10TestResult
   fun:_ZN10UtestShell26runOneTestInCurrentProcessEP10TestPluginR10TestResult
   fun:helperDoRunOneTestInCurrentProcess
   fun:PlatformSpecificSetJmpImplementation
}
{
   ignore_new_delete_overloaded_by_cpputest
   Memcheck:Addr8
   fun:_ZN22MemoryLeakDetectorList11getLeakFromEP22MemoryLeakDetectorNode13MemLeakPeriod
   fun:_ZN22MemoryLeakDetectorList12getFirstLeakE13MemLeakPeriod
   fun:_ZN23MemoryLeakDetectorTable11getNextLeakEP22MemoryLeakDetectorNode13MemLeakPeriod
   fun:_ZN18MemoryLeakDetector25ConstructMemoryLeakReportE13MemLeakPeriod
   fun:_ZN18MemoryLeakDetector6reportE13MemLeakPeriod
   fun:_ZN23MemoryLeakWarningPlugin14postTestActionER10UtestShellR10TestResult
   fun:_ZN10TestPlugin20runAllPostTestActionER10UtestShellR10TestResult
   fun:_ZN10TestPlugin20runAllPostTestActionER10UtestShellR10TestResult
   fun:_ZN10UtestShell26runOneTestInCurrentProcessEP10TestPluginR10TestResult
   fun:helperDoRunOneTestInCurrentProcess
   fun:PlatformSpecificSetJmpImplementation
   fun:_ZN10UtestShell10runOneTestEP10TestPluginR10TestResult
}
{
   ignore_new_delete_overloaded_by_cpputest
   Memcheck:Addr8
   fun:_ZN22MemoryLeakDetectorList11getLeakFromEP22MemoryLeakDetectorNode13MemLeakPeriod
   fun:_ZN22MemoryLeakDetectorList12getFirstLeakE13MemLeakPeriod
   fun:_ZN23MemoryLeakDetectorTable11getNextLeakEP22MemoryLeakDetectorNode13MemLeakPeriod
   fun:_ZN18MemoryLeakDetector42markCheckingPeriodLeaksAsNonCheckingPeriodEv
   fun:_ZN23MemoryLeakWarningPlugin14postTestActionER10UtestShellR10TestResult
   fun:_ZN10TestPlugin20runAllPostTestActionER10UtestShellR10TestResult
   fun:_ZN10TestPlugin20runAllPostTestActionER10UtestShellR10TestResult
   fun:_ZN10UtestShell26runOneTestInCurrentProcessEP10TestPluginR10TestResult
   fun:helperDoRunOneTestInCurrentProcess
   fun:PlatformSpecificSetJmpImplementation
   fun:_ZN10UtestShell10runOneTestEP10TestPluginR10TestResult
   fun:_ZN12TestRegistry11runAllTestsER10TestResult
}
{
   ignore_new_delete_overloaded_by_cpputest
   Memcheck:Free
   fun:_ZdlPvm
   fun:_ZN44TEST_Strings_RtrimRemovesRightEndSpaces_TestD0Ev
   fun:_ZN10UtestShell11destroyTestEP5Utest
   fun:_ZN10UtestShell26runOneTestInCurrentProcessEP10TestPluginR10TestResult
   fun:helperDoRunOneTestInCurrentProcess
   fun:PlatformSpecificSetJmpImplementation
   fun:_ZN10UtestShell10runOneTestEP10TestPluginR10TestResult
   fun:_ZN12TestRegistry11runAllTestsER10TestResult
   fun:_ZN21CommandLineTestRunner11runAllTestsEv
   fun:_ZN21CommandLineTestRunner15runAllTestsMainEv
   fun:_ZN21CommandLineTestRunner11RunAllTestsEiPKPKc
   fun:_ZN21CommandLineTestRunner11RunAllTestsEiPPc
}
{
   ignore_new_delete_overloaded_by_cpputest
   Memcheck:Free
   fun:_ZdlPvm
   fun:_ZN50TEST_Strings_ChompLeavesEmptyStringsUnchanged_TestD0Ev
   fun:_ZN10UtestShell11destroyTestEP5Utest
   fun:_ZN10UtestShell26runOneTestInCurrentProcessEP10TestPluginR10TestResult
   fun:helperDoRunOneTestInCurrentProcess
   fun:PlatformSpecificSetJmpImplementation
   fun:_ZN10UtestShell10runOneTestEP10TestPluginR10TestResult
   fun:_ZN12TestRegistry11runAllTestsER10TestResult
   fun:_ZN21CommandLineTestRunner11runAllTestsEv
   fun:_ZN21CommandLineTestRunner15runAllTestsMainEv
   fun:_ZN21CommandLineTestRunner11RunAllTestsEiPKPKc
   fun:_ZN21CommandLineTestRunner11RunAllTestsEiPPc
}
{
   ignore_new_delete_overloaded_by_cpputest
   Memcheck:Free
   fun:_ZdlPvm
   fun:_ZN62TEST_Strings_ChompStripsNewlinesFromOtherwiseEmptyStrings_TestD0Ev
   fun:_ZN10UtestShell11destroyTestEP5Utest
   fun:_ZN10UtestShell26runOneTestInCurrentProcessEP10TestPluginR10TestResult
   fun:helperDoRunOneTestInCurrentProcess
   fun:PlatformSpecificSetJmpImplementation
   fun:_ZN10UtestShell10runOneTestEP10TestPluginR10TestResult
   fun:_ZN12TestRegistry11runAllTestsER10TestResult
   fun:_ZN21CommandLineTestRunner11runAllTestsEv
   fun:_ZN21CommandLineTestRunner15runAllTestsMainEv
   fun:_ZN21CommandLineTestRunner11RunAllTestsEiPKPKc
   fun:_ZN21CommandLineTestRunner11RunAllTestsEiPPc
}
{
   ignore_new_delete_overloaded_by_cpputest
   Memcheck:Free
   fun:_ZdlPvm
   fun:_ZN36TEST_Strings_ChompStripsMacEOLs_TestD0Ev
   fun:_ZN10UtestShell11destroyTestEP5Utest
   fun:_ZN10UtestShell26runOneTestInCurrentProcessEP10TestPluginR10TestResult
   fun:helperDoRunOneTestInCurrentProcess
   fun:PlatformSpecificSetJmpImplementation
   fun:_ZN10UtestShell10runOneTestEP10TestPluginR10TestResult
   fun:_ZN12TestRegistry11runAllTestsER10TestResult
   fun:_ZN21CommandLineTestRunner11runAllTestsEv
   fun:_ZN21CommandLineTestRunner15runAllTestsMainEv
   fun:_ZN21CommandLineTestRunner11RunAllTestsEiPKPKc
   fun:_ZN21CommandLineTestRunner11RunAllTestsEiPPc
}
{
   ignore_new_delete_overloaded_by_cpputest
   Memcheck:Free
   fun:_ZdlPvm
   fun:_ZN37TEST_Strings_ChompStripsUnixEOLs_TestD0Ev
   fun:_ZN10UtestShell11destroyTestEP5Utest
   fun:_ZN10UtestShell26runOneTestInCurrentProcessEP10TestPluginR10TestResult
   fun:helperDoRunOneTestInCurrentProcess
   fun:PlatformSpecificSetJmpImplementation
   fun:_ZN10UtestShell10runOneTestEP10TestPluginR10TestResult
   fun:_ZN12TestRegistry11runAllTestsER10TestResult
   fun:_ZN21CommandLineTestRunner11runAllTestsEv
   fun:_ZN21CommandLineTestRunner15runAllTestsMainEv
   fun:_ZN21CommandLineTestRunner11RunAllTestsEiPKPKc
   fun:_ZN21CommandLineTestRunner11RunAllTestsEiPPc
}
{
   ignore_new_delete_overloaded_by_cpputest
   Memcheck:Free
   fun:_ZdlPvm
   fun:_ZN36TEST_Strings_ChompStripsDosEOLs_TestD0Ev
   fun:_ZN10UtestShell11destroyTestEP5Utest
   fun:_ZN10UtestShell26runOneTestInCurrentProcessEP10TestPluginR10TestResult
   fun:helperDoRunOneTestInCurrentProcess
   fun:PlatformSpecificSetJmpImplementation
   fun:_ZN10UtestShell10runOneTestEP10TestPluginR10TestResult
   fun:_ZN12TestRegistry11runAllTestsER10TestResult
   fun:_ZN21CommandLineTestRunner11runAllTestsEv
   fun:_ZN21CommandLineTestRunner15runAllTestsMainEv
   fun:_ZN21CommandLineTestRunner11RunAllTestsEiPKPKc
   fun:_ZN21CommandLineTestRunner11RunAllTestsEiPPc
}
{
   ignore_new_delete_overloaded_by_cpputest
   Memcheck:Free
   fun:_ZdlPvm
   fun:_ZN30TEST_Math_FactorialOf1754_TestD0Ev
   fun:_ZN10UtestShell11destroyTestEP5Utest
   fun:_ZN10UtestShell26runOneTestInCurrentProcessEP10TestPluginR10TestResult
   fun:helperDoRunOneTestInCurrentProcess
   fun:PlatformSpecificSetJmpImplementation
   fun:_ZN10UtestShell10runOneTestEP10TestPluginR10TestResult
   fun:_ZN12TestRegistry11runAllTestsER10TestResult
   fun:_ZN21CommandLineTestRunner11runAllTestsEv
   fun:_ZN21CommandLineTestRunner15runAllTestsMainEv
   fun:_ZN21CommandLineTestRunner11RunAllTestsEiPKPKc
   fun:_ZN21CommandLineTestRunner11RunAllTestsEiPPc
}
{
   ignore_new_delete_overloaded_by_cpputest
   Memcheck:Free
   fun:_ZdlPvm
   fun:_ZN29TEST_Math_FactorialOf170_TestD0Ev
   fun:_ZN10UtestShell11destroyTestEP5Utest
   fun:_ZN10UtestShell26runOneTestInCurrentProcessEP10TestPluginR10TestResult
   fun:helperDoRunOneTestInCurrentProcess
   fun:PlatformSpecificSetJmpImplementation
   fun:_ZN10UtestShell10runOneTestEP10TestPluginR10TestResult
   fun:_ZN12TestRegistry11runAllTestsER10TestResult
   fun:_ZN21CommandLineTestRunner11runAllTestsEv
   fun:_ZN21CommandLineTestRunner15runAllTestsMainEv
   fun:_ZN21CommandLineTestRunner11RunAllTestsEiPKPKc
   fun:_ZN21CommandLineTestRunner11RunAllTestsEiPPc
}
{
   ignore_new_delete_overloaded_by_cpputest
   Memcheck:Addr4
   fun:_ZN22MemoryLeakDetectorList10isInPeriodEP22MemoryLeakDetectorNode13MemLeakPeriod
   fun:_ZN22MemoryLeakDetectorList11getLeakFromEP22MemoryLeakDetectorNode13MemLeakPeriod
   fun:_ZN22MemoryLeakDetectorList11getNextLeakEP22MemoryLeakDetectorNode13MemLeakPeriod
   fun:_ZN23MemoryLeakDetectorTable11getNextLeakEP22MemoryLeakDetectorNode13MemLeakPeriod
   fun:_ZN18MemoryLeakDetector42markCheckingPeriodLeaksAsNonCheckingPeriodEv
   fun:_ZN23MemoryLeakWarningPlugin14postTestActionER10UtestShellR10TestResult
   fun:_ZN10TestPlugin20runAllPostTestActionER10UtestShellR10TestResult
   fun:_ZN10TestPlugin20runAllPostTestActionER10UtestShellR10TestResult
   fun:_ZN10UtestShell26runOneTestInCurrentProcessEP10TestPluginR10TestResult
   fun:helperDoRunOneTestInCurrentProcess
   fun:PlatformSpecificSetJmpImplementation
   fun:_ZN10UtestShell10runOneTestEP10TestPluginR10TestResult
}
{
   ignore_new_delete_overloaded_by_cpputest
   Memcheck:Addr8
   fun:_ZN22MemoryLeakDetectorList11getLeakFromEP22MemoryLeakDetectorNode13MemLeakPeriod
   fun:_ZN22MemoryLeakDetectorList11getNextLeakEP22MemoryLeakDetectorNode13MemLeakPeriod
   fun:_ZN23MemoryLeakDetectorTable11getNextLeakEP22MemoryLeakDetectorNode13MemLeakPeriod
   fun:_ZN18MemoryLeakDetector42markCheckingPeriodLeaksAsNonCheckingPeriodEv
   fun:_ZN23MemoryLeakWarningPlugin14postTestActionER10UtestShellR10TestResult
   fun:_ZN10TestPlugin20runAllPostTestActionER10UtestShellR10TestResult
   fun:_ZN10TestPlugin20runAllPostTestActionER10UtestShellR10TestResult
   fun:_ZN10UtestShell26runOneTestInCurrentProcessEP10TestPluginR10TestResult
   fun:helperDoRunOneTestInCurrentProcess
   fun:PlatformSpecificSetJmpImplementation
   fun:_ZN10UtestShell10runOneTestEP10TestPluginR10TestResult
   fun:_ZN12TestRegistry11runAllTestsER10TestResult
}
{
   ignore_new_delete_overloaded_by_cpputest
   Memcheck:Free
   fun:_ZdlPvm
   fun:_ZN56TEST_Math_FactorialOfChecksBoundsGivenNegativeInput_TestD0Ev
   fun:_ZN10UtestShell11destroyTestEP5Utest
   fun:_ZN10UtestShell26runOneTestInCurrentProcessEP10TestPluginR10TestResult
   fun:helperDoRunOneTestInCurrentProcess
   fun:PlatformSpecificSetJmpImplementation
   fun:_ZN10UtestShell10runOneTestEP10TestPluginR10TestResult
   fun:_ZN12TestRegistry11runAllTestsER10TestResult
   fun:_ZN21CommandLineTestRunner11runAllTestsEv
   fun:_ZN21CommandLineTestRunner15runAllTestsMainEv
   fun:_ZN21CommandLineTestRunner11RunAllTestsEiPKPKc
   fun:_ZN21CommandLineTestRunner11RunAllTestsEiPPc
}
{
   ignore_new_delete_overloaded_by_cpputest
   Memcheck:Free
   fun:_ZdlPvm
   fun:_ZN38TEST_Math_FactorialOfChecksBounds_TestD0Ev
   fun:_ZN10UtestShell11destroyTestEP5Utest
   fun:_ZN10UtestShell26runOneTestInCurrentProcessEP10TestPluginR10TestResult
   fun:helperDoRunOneTestInCurrentProcess
   fun:PlatformSpecificSetJmpImplementation
   fun:_ZN10UtestShell10runOneTestEP10TestPluginR10TestResult
   fun:_ZN12TestRegistry11runAllTestsER10TestResult
   fun:_ZN21CommandLineTestRunner11runAllTestsEv
   fun:_ZN21CommandLineTestRunner15runAllTestsMainEv
   fun:_ZN21CommandLineTestRunner11RunAllTestsEiPKPKc
   fun:_ZN21CommandLineTestRunner11RunAllTestsEiPPc
}
{
   ignore_new_delete_overloaded_by_cpputest
   Memcheck:Free
   fun:_ZdlPvm
   fun:_ZN29TEST_Math_FactorialOfSix_TestD0Ev
   fun:_ZN10UtestShell11destroyTestEP5Utest
   fun:_ZN10UtestShell26runOneTestInCurrentProcessEP10TestPluginR10TestResult
   fun:helperDoRunOneTestInCurrentProcess
   fun:PlatformSpecificSetJmpImplementation
   fun:_ZN10UtestShell10runOneTestEP10TestPluginR10TestResult
   fun:_ZN12TestRegistry11runAllTestsER10TestResult
   fun:_ZN21CommandLineTestRunner11runAllTestsEv
   fun:_ZN21CommandLineTestRunner15runAllTestsMainEv
   fun:_ZN21CommandLineTestRunner11RunAllTestsEiPKPKc
   fun:_ZN21CommandLineTestRunner11RunAllTestsEiPPc
}
{
   ignore_new_delete_overloaded_by_cpputest
   Memcheck:Free
   fun:_ZdlPvm
   fun:_ZN30TEST_Math_FactorialOfZero_TestD0Ev
   fun:_ZN10UtestShell11destroyTestEP5Utest
   fun:_ZN10UtestShell26runOneTestInCurrentProcessEP10TestPluginR10TestResult
   fun:helperDoRunOneTestInCurrentProcess
   fun:PlatformSpecificSetJmpImplementation
   fun:_ZN10UtestShell10runOneTestEP10TestPluginR10TestResult
   fun:_ZN12TestRegistry11runAllTestsER10TestResult
   fun:_ZN21CommandLineTestRunner11runAllTestsEv
   fun:_ZN21CommandLineTestRunner15runAllTestsMainEv
   fun:_ZN21CommandLineTestRunner11RunAllTestsEiPKPKc
   fun:_ZN21CommandLineTestRunner11RunAllTestsEiPPc
}
{
   ignore_new_delete_overloaded_by_cpputest
   Memcheck:Free
   fun:_ZdlPvm
   fun:_ZN35TEST_Math_ParseIntChecksBounds_TestD0Ev
   fun:_ZN10UtestShell11destroyTestEP5Utest
   fun:_ZN10UtestShell26runOneTestInCurrentProcessEP10TestPluginR10TestResult
   fun:helperDoRunOneTestInCurrentProcess
   fun:PlatformSpecificSetJmpImplementation
   fun:_ZN10UtestShell10runOneTestEP10TestPluginR10TestResult
   fun:_ZN12TestRegistry11runAllTestsER10TestResult
   fun:_ZN21CommandLineTestRunner11runAllTestsEv
   fun:_ZN21CommandLineTestRunner15runAllTestsMainEv
   fun:_ZN21CommandLineTestRunner11RunAllTestsEiPKPKc
   fun:_ZN21CommandLineTestRunner11RunAllTestsEiPPc
}
{
   ignore_new_delete_overloaded_by_cpputest
   Memcheck:Free
   fun:_ZdlPvm
   fun:_ZN36TEST_Math_ParseIntValidatesBase_TestD0Ev
   fun:_ZN10UtestShell11destroyTestEP5Utest
   fun:_ZN10UtestShell26runOneTestInCurrentProcessEP10TestPluginR10TestResult
   fun:helperDoRunOneTestInCurrentProcess
   fun:PlatformSpecificSetJmpImplementation
   fun:_ZN10UtestShell10runOneTestEP10TestPluginR10TestResult
   fun:_ZN12TestRegistry11runAllTestsER10TestResult
   fun:_ZN21CommandLineTestRunner11runAllTestsEv
   fun:_ZN21CommandLineTestRunner15runAllTestsMainEv
   fun:_ZN21CommandLineTestRunner11RunAllTestsEiPKPKc
   fun:_ZN21CommandLineTestRunner11RunAllTestsEiPPc
}
{
   ignore_new_delete_overloaded_by_cpputest
   Memcheck:Free
   fun:_ZdlPvm
   fun:_ZN37TEST_Math_ParseIntValidatesInput_TestD0Ev
   fun:_ZN10UtestShell11destroyTestEP5Utest
   fun:_ZN10UtestShell26runOneTestInCurrentProcessEP10TestPluginR10TestResult
   fun:helperDoRunOneTestInCurrentProcess
   fun:PlatformSpecificSetJmpImplementation
   fun:_ZN10UtestShell10runOneTestEP10TestPluginR10TestResult
   fun:_ZN12TestRegistry11runAllTestsER10TestResult
   fun:_ZN21CommandLineTestRunner11runAllTestsEv
   fun:_ZN21CommandLineTestRunner15runAllTestsMainEv
   fun:_ZN21CommandLineTestRunner11RunAllTestsEiPKPKc
   fun:_ZN21CommandLineTestRunner11RunAllTestsEiPPc
}
{
   ignore_new_delete_overloaded_by_cpputest
   Memcheck:Addr8
   fun:_ZN22MemoryLeakDetectorList11getLeakFromEP22MemoryLeakDetectorNode13MemLeakPeriod
   fun:_ZN22MemoryLeakDetectorList11getNextLeakEP22MemoryLeakDetectorNode13MemLeakPeriod
   fun:_ZN23MemoryLeakDetectorTable11getNextLeakEP22MemoryLeakDetectorNode13MemLeakPeriod
   fun:_ZN18MemoryLeakDetector25ConstructMemoryLeakReportE13MemLeakPeriod
   fun:_ZN18MemoryLeakDetector6reportE13MemLeakPeriod
   fun:_ZN23MemoryLeakWarningPlugin14postTestActionER10UtestShellR10TestResult
   fun:_ZN10TestPlugin20runAllPostTestActionER10UtestShellR10TestResult
   fun:_ZN10TestPlugin20runAllPostTestActionER10UtestShellR10TestResult
   fun:_ZN10UtestShell26runOneTestInCurrentProcessEP10TestPluginR10TestResult
   fun:helperDoRunOneTestInCurrentProcess
   fun:PlatformSpecificSetJmpImplementation
   fun:_ZN10UtestShell10runOneTestEP10TestPluginR10TestResult
}
{
   ignore_new_delete_overloaded_by_cpputest
   Memcheck:Free
   fun:_ZdlPvm
   fun:_ZN38TEST_Math_ParseInt64FromHexString_TestD0Ev
   fun:_ZN10UtestShell11destroyTestEP5Utest
   fun:_ZN10UtestShell26runOneTestInCurrentProcessEP10TestPluginR10TestResult
   fun:helperDoRunOneTestInCurrentProcess
   fun:PlatformSpecificSetJmpImplementation
   fun:_ZN10UtestShell10runOneTestEP10TestPluginR10TestResult
   fun:_ZN12TestRegistry11runAllTestsER10TestResult
   fun:_ZN21CommandLineTestRunner11runAllTestsEv
   fun:_ZN21CommandLineTestRunner15runAllTestsMainEv
   fun:_ZN21CommandLineTestRunner11RunAllTestsEiPKPKc
   fun:_ZN21CommandLineTestRunner11RunAllTestsEiPPc
}
{
   ignore_new_delete_overloaded_by_cpputest
   Memcheck:Free
   fun:_ZdlPvm
   fun:_ZN36TEST_Math_ParseIntFromHexString_TestD0Ev
   fun:_ZN10UtestShell11destroyTestEP5Utest
   fun:_ZN10UtestShell26runOneTestInCurrentProcessEP10TestPluginR10TestResult
   fun:helperDoRunOneTestInCurrentProcess
   fun:PlatformSpecificSetJmpImplementation
   fun:_ZN10UtestShell10runOneTestEP10TestPluginR10TestResult
   fun:_ZN12TestRegistry11runAllTestsER10TestResult
   fun:_ZN21CommandLineTestRunner11runAllTestsEv
   fun:_ZN21CommandLineTestRunner15runAllTestsMainEv
   fun:_ZN21CommandLineTestRunner11RunAllTestsEiPKPKc
   fun:_ZN21CommandLineTestRunner11RunAllTestsEiPPc
}
{
   ignore_new_delete_overloaded_by_cpputest
   Memcheck:Free
   fun:_ZdlPvm
   fun:_ZN40TEST_Math_ParseIntFromDecimalString_TestD0Ev
   fun:_ZN10UtestShell11destroyTestEP5Utest
   fun:_ZN10UtestShell26runOneTestInCurrentProcessEP10TestPluginR10TestResult
   fun:helperDoRunOneTestInCurrentProcess
   fun:PlatformSpecificSetJmpImplementation
   fun:_ZN10UtestShell10runOneTestEP10TestPluginR10TestResult
   fun:_ZN12TestRegistry11runAllTestsER10TestResult
   fun:_ZN21CommandLineTestRunner11runAllTestsEv
   fun:_ZN21CommandLineTestRunner15runAllTestsMainEv
   fun:_ZN21CommandLineTestRunner11RunAllTestsEiPKPKc
   fun:_ZN21CommandLineTestRunner11RunAllTestsEiPPc
}
{
   ignore_new_delete_overloaded_by_cpputest
   Memcheck:Free
   fun:_ZdlPvm
   fun:_ZN38TEST_Math_ParseIntFromOctalString_TestD0Ev
   fun:_ZN10UtestShell11destroyTestEP5Utest
   fun:_ZN10UtestShell26runOneTestInCurrentProcessEP10TestPluginR10TestResult
   fun:helperDoRunOneTestInCurrentProcess
   fun:PlatformSpecificSetJmpImplementation
   fun:_ZN10UtestShell10runOneTestEP10TestPluginR10TestResult
   fun:_ZN12TestRegistry11runAllTestsER10TestResult
   fun:_ZN21CommandLineTestRunner11runAllTestsEv
   fun:_ZN21CommandLineTestRunner15runAllTestsMainEv
   fun:_ZN21CommandLineTestRunner11RunAllTestsEiPKPKc
   fun:_ZN21CommandLineTestRunner11RunAllTestsEiPPc
}
{
   ignore_new_delete_overloaded_by_cpputest
   Memcheck:Free
   fun:_ZdlPvm
   fun:_ZN39TEST_Math_ParseIntFromBinaryString_TestD0Ev
   fun:_ZN10UtestShell11destroyTestEP5Utest
   fun:_ZN10UtestShell26runOneTestInCurrentProcessEP10TestPluginR10TestResult
   fun:helperDoRunOneTestInCurrentProcess
   fun:PlatformSpecificSetJmpImplementation
   fun:_ZN10UtestShell10runOneTestEP10TestPluginR10TestResult
   fun:_ZN12TestRegistry11runAllTestsER10TestResult
   fun:_ZN21CommandLineTestRunner11runAllTestsEv
   fun:_ZN21CommandLineTestRunner15runAllTestsMainEv
   fun:_ZN21CommandLineTestRunner11RunAllTestsEiPKPKc
   fun:_ZN21CommandLineTestRunner11RunAllTestsEiPPc
}
{
   ignore_new_delete_overloaded_by_cpputest
   Memcheck:Free
   fun:_ZdlPvm
   fun:_ZN73TEST_TestMoreinttypesCoreH_Factorial64ChecksBoundsGivenNegativeInput_TestD0Ev
   fun:_ZN10UtestShell11destroyTestEP5Utest
   fun:_ZN10UtestShell26runOneTestInCurrentProcessEP10TestPluginR10TestResult
   fun:helperDoRunOneTestInCurrentProcess
   fun:PlatformSpecificSetJmpImplementation
   fun:_ZN10UtestShell10runOneTestEP10TestPluginR10TestResult
   fun:_ZN12TestRegistry11runAllTestsER10TestResult
   fun:_ZN21CommandLineTestRunner11runAllTestsEv
   fun:_ZN21CommandLineTestRunner15runAllTestsMainEv
   fun:_ZN21CommandLineTestRunner11RunAllTestsEiPKPKc
   fun:_ZN21CommandLineTestRunner11RunAllTestsEiPPc
}
{
   ignore_new_delete_overloaded_by_cpputest
   Memcheck:Free
   fun:_ZdlPvm
   fun:_ZN71TEST_TestMoreinttypesCoreH_FactorialChecksBoundsGivenNegativeInput_TestD0Ev
   fun:_ZN10UtestShell11destroyTestEP5Utest
   fun:_ZN10UtestShell26runOneTestInCurrentProcessEP10TestPluginR10TestResult
   fun:helperDoRunOneTestInCurrentProcess
   fun:PlatformSpecificSetJmpImplementation
   fun:_ZN10UtestShell10runOneTestEP10TestPluginR10TestResult
   fun:_ZN12TestRegistry11runAllTestsER10TestResult
   fun:_ZN21CommandLineTestRunner11runAllTestsEv
   fun:_ZN21CommandLineTestRunner15runAllTestsMainEv
   fun:_ZN21CommandLineTestRunner11RunAllTestsEiPKPKc
   fun:_ZN21CommandLineTestRunner11RunAllTestsEiPPc
}
{
   ignore_new_delete_overloaded_by_cpputest
   Memcheck:Free
   fun:_ZdlPvm
   fun:_ZN55TEST_TestMoreinttypesCoreH_FactorialOfChecksBounds_TestD0Ev
   fun:_ZN10UtestShell11destroyTestEP5Utest
   fun:_ZN10UtestShell26runOneTestInCurrentProcessEP10TestPluginR10TestResult
   fun:helperDoRunOneTestInCurrentProcess
   fun:PlatformSpecificSetJmpImplementation
   fun:_ZN10UtestShell10runOneTestEP10TestPluginR10TestResult
   fun:_ZN12TestRegistry11runAllTestsER10TestResult
   fun:_ZN21CommandLineTestRunner11runAllTestsEv
   fun:_ZN21CommandLineTestRunner15runAllTestsMainEv
   fun:_ZN21CommandLineTestRunner11RunAllTestsEiPKPKc
   fun:_ZN21CommandLineTestRunner11RunAllTestsEiPPc
}
{
   ignore_new_delete_overloaded_by_cpputest
   Memcheck:Free
   fun:_ZdlPvm
   fun:_ZN46TEST_TestMoreinttypesCoreH_FactorialOfSix_TestD0Ev
   fun:_ZN10UtestShell11destroyTestEP5Utest
   fun:_ZN10UtestShell26runOneTestInCurrentProcessEP10TestPluginR10TestResult
   fun:helperDoRunOneTestInCurrentProcess
   fun:PlatformSpecificSetJmpImplementation
   fun:_ZN10UtestShell10runOneTestEP10TestPluginR10TestResult
   fun:_ZN12TestRegistry11runAllTestsER10TestResult
   fun:_ZN21CommandLineTestRunner11runAllTestsEv
   fun:_ZN21CommandLineTestRunner15runAllTestsMainEv
   fun:_ZN21CommandLineTestRunner11RunAllTestsEiPKPKc
   fun:_ZN21CommandLineTestRunner11RunAllTestsEiPPc
}
{
   ignore_new_delete_overloaded_by_cpputest
   Memcheck:Free
   fun:_ZdlPvm
   fun:_ZN47TEST_TestMoreinttypesCoreH_FactorialOfZero_TestD0Ev
   fun:_ZN10UtestShell11destroyTestEP5Utest
   fun:_ZN10UtestShell26runOneTestInCurrentProcessEP10TestPluginR10TestResult
   fun:helperDoRunOneTestInCurrentProcess
   fun:PlatformSpecificSetJmpImplementation
   fun:_ZN10UtestShell10runOneTestEP10TestPluginR10TestResult
   fun:_ZN12TestRegistry11runAllTestsER10TestResult
   fun:_ZN21CommandLineTestRunner11runAllTestsEv
   fun:_ZN21CommandLineTestRunner15runAllTestsMainEv
   fun:_ZN21CommandLineTestRunner11RunAllTestsEiPKPKc
   fun:_ZN21CommandLineTestRunner11RunAllTestsEiPPc
}
{
   ignore_new_delete_overloaded_by_cpputest
   Memcheck:Free
   fun:_ZdlPvm
   fun:_ZN52TEST_TestMoreinttypesCoreH_ParseIntChecksBounds_TestD0Ev
   fun:_ZN10UtestShell11destroyTestEP5Utest
   fun:_ZN10UtestShell26runOneTestInCurrentProcessEP10TestPluginR10TestResult
   fun:helperDoRunOneTestInCurrentProcess
   fun:PlatformSpecificSetJmpImplementation
   fun:_ZN10UtestShell10runOneTestEP10TestPluginR10TestResult
   fun:_ZN12TestRegistry11runAllTestsER10TestResult
   fun:_ZN21CommandLineTestRunner11runAllTestsEv
   fun:_ZN21CommandLineTestRunner15runAllTestsMainEv
   fun:_ZN21CommandLineTestRunner11RunAllTestsEiPKPKc
   fun:_ZN21CommandLineTestRunner11RunAllTestsEiPPc
}
{
   ignore_new_delete_overloaded_by_cpputest
   Memcheck:Free
   fun:_ZdlPvm
   fun:_ZN53TEST_TestMoreinttypesCoreH_ParseIntValidatesBase_TestD0Ev
   fun:_ZN10UtestShell11destroyTestEP5Utest
   fun:_ZN10UtestShell26runOneTestInCurrentProcessEP10TestPluginR10TestResult
   fun:helperDoRunOneTestInCurrentProcess
   fun:PlatformSpecificSetJmpImplementation
   fun:_ZN10UtestShell10runOneTestEP10TestPluginR10TestResult
   fun:_ZN12TestRegistry11runAllTestsER10TestResult
   fun:_ZN21CommandLineTestRunner11runAllTestsEv
   fun:_ZN21CommandLineTestRunner15runAllTestsMainEv
   fun:_ZN21CommandLineTestRunner11RunAllTestsEiPKPKc
   fun:_ZN21CommandLineTestRunner11RunAllTestsEiPPc
}
{
   ignore_new_delete_overloaded_by_cpputest
   Memcheck:Free
   fun:_ZdlPvm
   fun:_ZN54TEST_TestMoreinttypesCoreH_ParseIntValidatesInput_TestD0Ev
   fun:_ZN10UtestShell11destroyTestEP5Utest
   fun:_ZN10UtestShell26runOneTestInCurrentProcessEP10TestPluginR10TestResult
   fun:helperDoRunOneTestInCurrentProcess
   fun:PlatformSpecificSetJmpImplementation
   fun:_ZN10UtestShell10runOneTestEP10TestPluginR10TestResult
   fun:_ZN12TestRegistry11runAllTestsER10TestResult
   fun:_ZN21CommandLineTestRunner11runAllTestsEv
   fun:_ZN21CommandLineTestRunner15runAllTestsMainEv
   fun:_ZN21CommandLineTestRunner11RunAllTestsEiPKPKc
   fun:_ZN21CommandLineTestRunner11RunAllTestsEiPPc
}
{
   ignore_new_delete_overloaded_by_cpputest
   Memcheck:Free
   fun:_ZdlPvm
   fun:_ZN55TEST_TestMoreinttypesCoreH_ParseInt64FromHexString_TestD0Ev
   fun:_ZN10UtestShell11destroyTestEP5Utest
   fun:_ZN10UtestShell26runOneTestInCurrentProcessEP10TestPluginR10TestResult
   fun:helperDoRunOneTestInCurrentProcess
   fun:PlatformSpecificSetJmpImplementation
   fun:_ZN10UtestShell10runOneTestEP10TestPluginR10TestResult
   fun:_ZN12TestRegistry11runAllTestsER10TestResult
   fun:_ZN21CommandLineTestRunner11runAllTestsEv
   fun:_ZN21CommandLineTestRunner15runAllTestsMainEv
   fun:_ZN21CommandLineTestRunner11RunAllTestsEiPKPKc
   fun:_ZN21CommandLineTestRunner11RunAllTestsEiPPc
}
{
   ignore_new_delete_overloaded_by_cpputest
   Memcheck:Free
   fun:_ZdlPvm
   fun:_ZN53TEST_TestMoreinttypesCoreH_ParseIntFromHexString_TestD0Ev
   fun:_ZN10UtestShell11destroyTestEP5Utest
   fun:_ZN10UtestShell26runOneTestInCurrentProcessEP10TestPluginR10TestResult
   fun:helperDoRunOneTestInCurrentProcess
   fun:PlatformSpecificSetJmpImplementation
   fun:_ZN10UtestShell10runOneTestEP10TestPluginR10TestResult
   fun:_ZN12TestRegistry11runAllTestsER10TestResult
   fun:_ZN21CommandLineTestRunner11runAllTestsEv
   fun:_ZN21CommandLineTestRunner15runAllTestsMainEv
   fun:_ZN21CommandLineTestRunner11RunAllTestsEiPKPKc
   fun:_ZN21CommandLineTestRunner11RunAllTestsEiPPc
}
{
   ignore_new_delete_overloaded_by_cpputest
   Memcheck:Free
   fun:_ZdlPvm
   fun:_ZN57TEST_TestMoreinttypesCoreH_ParseIntFromDecimalString_TestD0Ev
   fun:_ZN10UtestShell11destroyTestEP5Utest
   fun:_ZN10UtestShell26runOneTestInCurrentProcessEP10TestPluginR10TestResult
   fun:helperDoRunOneTestInCurrentProcess
   fun:PlatformSpecificSetJmpImplementation
   fun:_ZN10UtestShell10runOneTestEP10TestPluginR10TestResult
   fun:_ZN12TestRegistry11runAllTestsER10TestResult
   fun:_ZN21CommandLineTestRunner11runAllTestsEv
   fun:_ZN21CommandLineTestRunner15runAllTestsMainEv
   fun:_ZN21CommandLineTestRunner11RunAllTestsEiPKPKc
   fun:_ZN21CommandLineTestRunner11RunAllTestsEiPPc
}
{
   ignore_new_delete_overloaded_by_cpputest
   Memcheck:Free
   fun:_ZdlPvm
   fun:_ZN55TEST_TestMoreinttypesCoreH_ParseIntFromOctalString_TestD0Ev
   fun:_ZN10UtestShell11destroyTestEP5Utest
   fun:_ZN10UtestShell26runOneTestInCurrentProcessEP10TestPluginR10TestResult
   fun:helperDoRunOneTestInCurrentProcess
   fun:PlatformSpecificSetJmpImplementation
   fun:_ZN10UtestShell10runOneTestEP10TestPluginR10TestResult
   fun:_ZN12TestRegistry11runAllTestsER10TestResult
   fun:_ZN21CommandLineTestRunner11runAllTestsEv
   fun:_ZN21CommandLineTestRunner15runAllTestsMainEv
   fun:_ZN21CommandLineTestRunner11RunAllTestsEiPKPKc
   fun:_ZN21CommandLineTestRunner11RunAllTestsEiPPc
}
{
   ignore_new_delete_overloaded_by_cpputest
   Memcheck:Free
   fun:_ZdlPvm
   fun:_ZN56TEST_TestMoreinttypesCoreH_ParseIntFromBinaryString_TestD0Ev
   fun:_ZN10UtestShell11destroyTestEP5Utest
   fun:_ZN10UtestShell26runOneTestInCurrentProcessEP10TestPluginR10TestResult
   fun:helperDoRunOneTestInCurrentProcess
   fun:PlatformSpecificSetJmpImplementation
   fun:_ZN10UtestShell10runOneTestEP10TestPluginR10TestResult
   fun:_ZN12TestRegistry11runAllTestsER10TestResult
   fun:_ZN21CommandLineTestRunner11runAllTestsEv
   fun:_ZN21CommandLineTestRunner15runAllTestsMainEv
   fun:_ZN21CommandLineTestRunner11RunAllTestsEiPKPKc
   fun:_ZN21CommandLineTestRunner11RunAllTestsEiPPc
}
{
   ignore_new_delete_overloaded_by_cpputest
   Memcheck:Free
   fun:_ZdlPvm
   fun:_ZN46TEST_TestMoreinttypesCoreH_ConstructInt64_TestD0Ev
   fun:_ZN10UtestShell11destroyTestEP5Utest
   fun:_ZN10UtestShell26runOneTestInCurrentProcessEP10TestPluginR10TestResult
   fun:helperDoRunOneTestInCurrentProcess
   fun:PlatformSpecificSetJmpImplementation
   fun:_ZN10UtestShell10runOneTestEP10TestPluginR10TestResult
   fun:_ZN12TestRegistry11runAllTestsER10TestResult
   fun:_ZN21CommandLineTestRunner11runAllTestsEv
   fun:_ZN21CommandLineTestRunner15runAllTestsMainEv
   fun:_ZN21CommandLineTestRunner11RunAllTestsEiPKPKc
   fun:_ZN21CommandLineTestRunner11RunAllTestsEiPPc
}
{
   ignore_new_delete_overloaded_by_cpputest
   Memcheck:Free
   fun:_ZdlPvm
   fun:_ZN46TEST_TestMoreinttypesCoreH_ConstructInt32_TestD0Ev
   fun:_ZN10UtestShell11destroyTestEP5Utest
   fun:_ZN10UtestShell26runOneTestInCurrentProcessEP10TestPluginR10TestResult
   fun:helperDoRunOneTestInCurrentProcess
   fun:PlatformSpecificSetJmpImplementation
   fun:_ZN10UtestShell10runOneTestEP10TestPluginR10TestResult
   fun:_ZN12TestRegistry11runAllTestsER10TestResult
   fun:_ZN21CommandLineTestRunner11runAllTestsEv
   fun:_ZN21CommandLineTestRunner15runAllTestsMainEv
   fun:_ZN21CommandLineTestRunner11RunAllTestsEiPKPKc
   fun:_ZN21CommandLineTestRunner11RunAllTestsEiPPc
}
{
   ignore_new_delete_overloaded_by_cpputest
   Memcheck:Free
   fun:_ZdlPvm
   fun:_ZN20CommandLineArgumentsD0Ev
   fun:_ZN21CommandLineTestRunnerD1Ev
   fun:_ZN21CommandLineTestRunner11RunAllTestsEiPKPKc
   fun:_ZN21CommandLineTestRunner11RunAllTestsEiPPc
   fun:main
}
{
   ignore_new_delete_overloaded_by_cpputest
   Memcheck:Free
   fun:_ZdlPvm
   fun:_ZN17ConsoleTestOutputD0Ev
   fun:_ZN21CommandLineTestRunnerD1Ev
   fun:_ZN21CommandLineTestRunner11RunAllTestsEiPKPKc
   fun:_ZN21CommandLineTestRunner11RunAllTestsEiPPc
   fun:main
}
{
   ignore_new_delete_overloaded_by_cpputest
   Memcheck:Free
   fun:_ZdlPvm
   fun:PThreadMutexDestroy
   fun:_ZN11SimpleMutexD1Ev
   fun:_ZN18MemoryLeakDetectorD1Ev
   fun:_ZN18MemoryLeakDetectorD0Ev
   fun:_ZN23MemoryLeakWarningPlugin21destroyGlobalDetectorEv
   fun:_ZN23MemoryLeakWarningPluginD1Ev
   fun:_ZN21CommandLineTestRunner11RunAllTestsEiPKPKc
   fun:_ZN21CommandLineTestRunner11RunAllTestsEiPPc
   fun:main
}
{
   ignore_new_delete_overloaded_by_cpputest
   Memcheck:Free
   fun:_ZdlPvm
   fun:_ZN18MemoryLeakDetectorD1Ev
   fun:_ZN18MemoryLeakDetectorD0Ev
   fun:_ZN23MemoryLeakWarningPlugin21destroyGlobalDetectorEv
   fun:_ZN23MemoryLeakWarningPluginD1Ev
   fun:_ZN21CommandLineTestRunner11RunAllTestsEiPKPKc
   fun:_ZN21CommandLineTestRunner11RunAllTestsEiPPc
   fun:main
}
{
   ignore_new_delete_overloaded_by_cpputest
   Memcheck:Free
   fun:_ZdlPvm
   fun:_ZN41TEST_Strings_TrimROSingleSpaceString_TestD0Ev
   fun:_ZN10UtestShell11destroyTestEP5Utest
   fun:_ZN10UtestShell26runOneTestInCurrentProcessEP10TestPluginR10TestResult
   fun:helperDoRunOneTestInCurrentProcess
   fun:PlatformSpecificSetJmpImplementation
   fun:_ZN10UtestShell10runOneTestEP10TestPluginR10TestResult
   fun:_ZN12TestRegistry11runAllTestsER10TestResult
   fun:_ZN21CommandLineTestRunner11runAllTestsEv
   fun:_ZN21CommandLineTestRunner15runAllTestsMainEv
   fun:_ZN21CommandLineTestRunner11RunAllTestsEiPKPKc
   fun:_ZN21CommandLineTestRunner11RunAllTestsEiPPc
}
{
   ignore_new_delete_overloaded_by_cpputest
   Memcheck:Free
   fun:_ZdlPvm
   fun:_ZN44TEST_Strings_TrimROSingleCharLeftString_TestD0Ev
   fun:_ZN10UtestShell11destroyTestEP5Utest
   fun:_ZN10UtestShell26runOneTestInCurrentProcessEP10TestPluginR10TestResult
   fun:helperDoRunOneTestInCurrentProcess
   fun:PlatformSpecificSetJmpImplementation
   fun:_ZN10UtestShell10runOneTestEP10TestPluginR10TestResult
   fun:_ZN12TestRegistry11runAllTestsER10TestResult
   fun:_ZN21CommandLineTestRunner11runAllTestsEv
   fun:_ZN21CommandLineTestRunner15runAllTestsMainEv
   fun:_ZN21CommandLineTestRunner11RunAllTestsEiPKPKc
   fun:_ZN21CommandLineTestRunner11RunAllTestsEiPPc
}
{
   ignore_new_delete_overloaded_by_cpputest
   Memcheck:Free
   fun:_ZdlPvm
   fun:_ZN45TEST_Strings_TrimROSingleCharRightString_TestD0Ev
   fun:_ZN10UtestShell11destroyTestEP5Utest
   fun:_ZN10UtestShell26runOneTestInCurrentProcessEP10TestPluginR10TestResult
   fun:helperDoRunOneTestInCurrentProcess
   fun:PlatformSpecificSetJmpImplementation
   fun:_ZN10UtestShell10runOneTestEP10TestPluginR10TestResult
   fun:_ZN12TestRegistry11runAllTestsER10TestResult
   fun:_ZN21CommandLineTestRunner11runAllTestsEv
   fun:_ZN21CommandLineTestRunner15runAllTestsMainEv
   fun:_ZN21CommandLineTestRunner11RunAllTestsEiPKPKc
   fun:_ZN21CommandLineTestRunner11RunAllTestsEiPPc
}
{
   ignore_new_delete_overloaded_by_cpputest
   Memcheck:Free
   fun:_ZdlPvm
   fun:_ZN45TEST_Strings_TrimROLeavesStringUnchanged_TestD0Ev
   fun:_ZN10UtestShell11destroyTestEP5Utest
   fun:_ZN10UtestShell26runOneTestInCurrentProcessEP10TestPluginR10TestResult
   fun:helperDoRunOneTestInCurrentProcess
   fun:PlatformSpecificSetJmpImplementation
   fun:_ZN10UtestShell10runOneTestEP10TestPluginR10TestResult
   fun:_ZN12TestRegistry11runAllTestsER10TestResult
   fun:_ZN21CommandLineTestRunner11runAllTestsEv
   fun:_ZN21CommandLineTestRunner15runAllTestsMainEv
   fun:_ZN21CommandLineTestRunner11RunAllTestsEiPKPKc
   fun:_ZN21CommandLineTestRunner11RunAllTestsEiPPc
}
{
   ignore_new_delete_overloaded_by_cpputest
   Memcheck:Free
   fun:_ZdlPvm
   fun:_ZN51TEST_Strings_TrimROLeavesEmptyStringsUnchanged_TestD0Ev
   fun:_ZN10UtestShell11destroyTestEP5Utest
   fun:_ZN10UtestShell26runOneTestInCurrentProcessEP10TestPluginR10TestResult
   fun:helperDoRunOneTestInCurrentProcess
   fun:PlatformSpecificSetJmpImplementation
   fun:_ZN10UtestShell10runOneTestEP10TestPluginR10TestResult
   fun:_ZN12TestRegistry11runAllTestsER10TestResult
   fun:_ZN21CommandLineTestRunner11runAllTestsEv
   fun:_ZN21CommandLineTestRunner15runAllTestsMainEv
   fun:_ZN21CommandLineTestRunner11RunAllTestsEiPKPKc
   fun:_ZN21CommandLineTestRunner11RunAllTestsEiPPc
}
{
   ignore_new_delete_overloaded_by_cpputest
   Memcheck:Free
   fun:_ZdlPvm
   fun:_ZN44TEST_Strings_TrimRORemovesLeftEndSpaces_TestD0Ev
   fun:_ZN10UtestShell11destroyTestEP5Utest
   fun:_ZN10UtestShell26runOneTestInCurrentProcessEP10TestPluginR10TestResult
   fun:helperDoRunOneTestInCurrentProcess
   fun:PlatformSpecificSetJmpImplementation
   fun:_ZN10UtestShell10runOneTestEP10TestPluginR10TestResult
   fun:_ZN12TestRegistry11runAllTestsER10TestResult
   fun:_ZN21CommandLineTestRunner11runAllTestsEv
   fun:_ZN21CommandLineTestRunner15runAllTestsMainEv
   fun:_ZN21CommandLineTestRunner11RunAllTestsEiPKPKc
   fun:_ZN21CommandLineTestRunner11RunAllTestsEiPPc
}
{
   ignore_new_delete_overloaded_by_cpputest
   Memcheck:Free
   fun:_ZdlPvm
   fun:_ZN45TEST_Strings_TrimRORemovesRightEndSpaces_TestD0Ev
   fun:_ZN10UtestShell11destroyTestEP5Utest
   fun:_ZN10UtestShell26runOneTestInCurrentProcessEP10TestPluginR10TestResult
   fun:helperDoRunOneTestInCurrentProcess
   fun:PlatformSpecificSetJmpImplementation
   fun:_ZN10UtestShell10runOneTestEP10TestPluginR10TestResult
   fun:_ZN12TestRegistry11runAllTestsER10TestResult
   fun:_ZN21CommandLineTestRunner11runAllTestsEv
   fun:_ZN21CommandLineTestRunner15runAllTestsMainEv
   fun:_ZN21CommandLineTestRunner11RunAllTestsEiPKPKc
   fun:_ZN21CommandLineTestRunner11RunAllTestsEiPPc
}
{
   ignore_new_delete_overloaded_by_cpputest
   Memcheck:Free
   fun:_ZdlPvm
   fun:_ZN39TEST_Strings_TrimSingleSpaceString_TestD0Ev
   fun:_ZN10UtestShell11destroyTestEP5Utest
   fun:_ZN10UtestShell26runOneTestInCurrentProcessEP10TestPluginR10TestResult
   fun:helperDoRunOneTestInCurrentProcess
   fun:PlatformSpecificSetJmpImplementation
   fun:_ZN10UtestShell10runOneTestEP10TestPluginR10TestResult
   fun:_ZN12TestRegistry11runAllTestsER10TestResult
   fun:_ZN21CommandLineTestRunner11runAllTestsEv
   fun:_ZN21CommandLineTestRunner15runAllTestsMainEv
   fun:_ZN21CommandLineTestRunner11RunAllTestsEiPKPKc
   fun:_ZN21CommandLineTestRunner11RunAllTestsEiPPc
}
{
   ignore_new_delete_overloaded_by_cpputest
   Memcheck:Free
   fun:_ZdlPvm
   fun:_ZN42TEST_Strings_TrimSingleCharLeftString_TestD0Ev
   fun:_ZN10UtestShell11destroyTestEP5Utest
   fun:_ZN10UtestShell26runOneTestInCurrentProcessEP10TestPluginR10TestResult
   fun:helperDoRunOneTestInCurrentProcess
   fun:PlatformSpecificSetJmpImplementation
   fun:_ZN10UtestShell10runOneTestEP10TestPluginR10TestResult
   fun:_ZN12TestRegistry11runAllTestsER10TestResult
   fun:_ZN21CommandLineTestRunner11runAllTestsEv
   fun:_ZN21CommandLineTestRunner15runAllTestsMainEv
   fun:_ZN21CommandLineTestRunner11RunAllTestsEiPKPKc
   fun:_ZN21CommandLineTestRunner11RunAllTestsEiPPc
}
{
   ignore_new_delete_overloaded_by_cpputest
   Memcheck:Free
   fun:_ZdlPvm
   fun:_ZN43TEST_Strings_TrimSingleCharRightString_TestD0Ev
   fun:_ZN10UtestShell11destroyTestEP5Utest
   fun:_ZN10UtestShell26runOneTestInCurrentProcessEP10TestPluginR10TestResult
   fun:helperDoRunOneTestInCurrentProcess
   fun:PlatformSpecificSetJmpImplementation
   fun:_ZN10UtestShell10runOneTestEP10TestPluginR10TestResult
   fun:_ZN12TestRegistry11runAllTestsER10TestResult
   fun:_ZN21CommandLineTestRunner11runAllTestsEv
   fun:_ZN21CommandLineTestRunner15runAllTestsMainEv
   fun:_ZN21CommandLineTestRunner11RunAllTestsEiPKPKc
   fun:_ZN21CommandLineTestRunner11RunAllTestsEiPPc
}
{
   ignore_new_delete_overloaded_by_cpputest
   Memcheck:Free
   fun:_ZdlPvm
   fun:_ZN43TEST_Strings_TrimLeavesStringUnchanged_TestD0Ev
   fun:_ZN10UtestShell11destroyTestEP5Utest
   fun:_ZN10UtestShell26runOneTestInCurrentProcessEP10TestPluginR10TestResult
   fun:helperDoRunOneTestInCurrentProcess
   fun:PlatformSpecificSetJmpImplementation
   fun:_ZN10UtestShell10runOneTestEP10TestPluginR10TestResult
   fun:_ZN12TestRegistry11runAllTestsER10TestResult
   fun:_ZN21CommandLineTestRunner11runAllTestsEv
   fun:_ZN21CommandLineTestRunner15runAllTestsMainEv
   fun:_ZN21CommandLineTestRunner11RunAllTestsEiPKPKc
   fun:_ZN21CommandLineTestRunner11RunAllTestsEiPPc
}
{
   ignore_new_delete_overloaded_by_cpputest
   Memcheck:Free
   fun:_ZdlPvm
   fun:_ZN49TEST_Strings_TrimLeavesEmptyStringsUnchanged_TestD0Ev
   fun:_ZN10UtestShell11destroyTestEP5Utest
   fun:_ZN10UtestShell26runOneTestInCurrentProcessEP10TestPluginR10TestResult
   fun:helperDoRunOneTestInCurrentProcess
   fun:PlatformSpecificSetJmpImplementation
   fun:_ZN10UtestShell10runOneTestEP10TestPluginR10TestResult
   fun:_ZN12TestRegistry11runAllTestsER10TestResult
   fun:_ZN21CommandLineTestRunner11runAllTestsEv
   fun:_ZN21CommandLineTestRunner15runAllTestsMainEv
   fun:_ZN21CommandLineTestRunner11RunAllTestsEiPKPKc
   fun:_ZN21CommandLineTestRunner11RunAllTestsEiPPc
}
{
   ignore_new_delete_overloaded_by_cpputest
   Memcheck:Free
   fun:_ZdlPvm
   fun:_ZN42TEST_Strings_TrimRemovesLeftEndSpaces_TestD0Ev
   fun:_ZN10UtestShell11destroyTestEP5Utest
   fun:_ZN10UtestShell26runOneTestInCurrentProcessEP10TestPluginR10TestResult
   fun:helperDoRunOneTestInCurrentProcess
   fun:PlatformSpecificSetJmpImplementation
   fun:_ZN10UtestShell10runOneTestEP10TestPluginR10TestResult
   fun:_ZN12TestRegistry11runAllTestsER10TestResult
   fun:_ZN21CommandLineTestRunner11runAllTestsEv
   fun:_ZN21CommandLineTestRunner15runAllTestsMainEv
   fun:_ZN21CommandLineTestRunner11RunAllTestsEiPKPKc
   fun:_ZN21CommandLineTestRunner11RunAllTestsEiPPc
}
{
   ignore_new_delete_overloaded_by_cpputest
   Memcheck:Free
   fun:_ZdlPvm
   fun:_ZN43TEST_Strings_TrimRemovesRightEndSpaces_TestD0Ev
   fun:_ZN10UtestShell11destroyTestEP5Utest
   fun:_ZN10UtestShell26runOneTestInCurrentProcessEP10TestPluginR10TestResult
   fun:helperDoRunOneTestInCurrentProcess
   fun:PlatformSpecificSetJmpImplementation
   fun:_ZN10UtestShell10runOneTestEP10TestPluginR10TestResult
   fun:_ZN12TestRegistry11runAllTestsER10TestResult
   fun:_ZN21CommandLineTestRunner11runAllTestsEv
   fun:_ZN21CommandLineTestRunner15runAllTestsMainEv
   fun:_ZN21CommandLineTestRunner11RunAllTestsEiPKPKc
   fun:_ZN21CommandLineTestRunner11RunAllTestsEiPPc
}
{
   ignore_new_delete_overloaded_by_cpputest
   Memcheck:Free
   fun:_ZdlPvm
   fun:_ZN42TEST_Strings_LtrimROSingleSpaceString_TestD0Ev
   fun:_ZN10UtestShell11destroyTestEP5Utest
   fun:_ZN10UtestShell26runOneTestInCurrentProcessEP10TestPluginR10TestResult
   fun:helperDoRunOneTestInCurrentProcess
   fun:PlatformSpecificSetJmpImplementation
   fun:_ZN10UtestShell10runOneTestEP10TestPluginR10TestResult
   fun:_ZN12TestRegistry11runAllTestsER10TestResult
   fun:_ZN21CommandLineTestRunner11runAllTestsEv
   fun:_ZN21CommandLineTestRunner15runAllTestsMainEv
   fun:_ZN21CommandLineTestRunner11RunAllTestsEiPKPKc
   fun:_ZN21CommandLineTestRunner11RunAllTestsEiPPc
}
{
   ignore_new_delete_overloaded_by_cpputest
   Memcheck:Free
   fun:_ZdlPvm
   fun:_ZN41TEST_Strings_LtrimROSingleCharString_TestD0Ev
   fun:_ZN10UtestShell11destroyTestEP5Utest
   fun:_ZN10UtestShell26runOneTestInCurrentProcessEP10TestPluginR10TestResult
   fun:helperDoRunOneTestInCurrentProcess
   fun:PlatformSpecificSetJmpImplementation
   fun:_ZN10UtestShell10runOneTestEP10TestPluginR10TestResult
   fun:_ZN12TestRegistry11runAllTestsER10TestResult
   fun:_ZN21CommandLineTestRunner11runAllTestsEv
   fun:_ZN21CommandLineTestRunner15runAllTestsMainEv
   fun:_ZN21CommandLineTestRunner11RunAllTestsEiPKPKc
   fun:_ZN21CommandLineTestRunner11RunAllTestsEiPPc
}
{
   ignore_new_delete_overloaded_by_cpputest
   Memcheck:Free
   fun:_ZdlPvm
   fun:_ZN46TEST_Strings_LtrimROLeavesStringUnchanged_TestD0Ev
   fun:_ZN10UtestShell11destroyTestEP5Utest
   fun:_ZN10UtestShell26runOneTestInCurrentProcessEP10TestPluginR10TestResult
   fun:helperDoRunOneTestInCurrentProcess
   fun:PlatformSpecificSetJmpImplementation
   fun:_ZN10UtestShell10runOneTestEP10TestPluginR10TestResult
   fun:_ZN12TestRegistry11runAllTestsER10TestResult
   fun:_ZN21CommandLineTestRunner11runAllTestsEv
   fun:_ZN21CommandLineTestRunner15runAllTestsMainEv
   fun:_ZN21CommandLineTestRunner11RunAllTestsEiPKPKc
   fun:_ZN21CommandLineTestRunner11RunAllTestsEiPPc
}
{
   ignore_new_delete_overloaded_by_cpputest
   Memcheck:Free
   fun:_ZdlPvm
   fun:_ZN52TEST_Strings_LtrimROLeavesEmptyStringsUnchanged_TestD0Ev
   fun:_ZN10UtestShell11destroyTestEP5Utest
   fun:_ZN10UtestShell26runOneTestInCurrentProcessEP10TestPluginR10TestResult
   fun:helperDoRunOneTestInCurrentProcess
   fun:PlatformSpecificSetJmpImplementation
   fun:_ZN10UtestShell10runOneTestEP10TestPluginR10TestResult
   fun:_ZN12TestRegistry11runAllTestsER10TestResult
   fun:_ZN21CommandLineTestRunner11runAllTestsEv
   fun:_ZN21CommandLineTestRunner15runAllTestsMainEv
   fun:_ZN21CommandLineTestRunner11RunAllTestsEiPKPKc
   fun:_ZN21CommandLineTestRunner11RunAllTestsEiPPc
}
{
   ignore_new_delete_overloaded_by_cpputest
   Memcheck:Free
   fun:_ZdlPvm
   fun:_ZN45TEST_Strings_LtrimRORemovesLeftEndSpaces_TestD0Ev
   fun:_ZN10UtestShell11destroyTestEP5Utest
   fun:_ZN10UtestShell26runOneTestInCurrentProcessEP10TestPluginR10TestResult
   fun:helperDoRunOneTestInCurrentProcess
   fun:PlatformSpecificSetJmpImplementation
   fun:_ZN10UtestShell10runOneTestEP10TestPluginR10TestResult
   fun:_ZN12TestRegistry11runAllTestsER10TestResult
   fun:_ZN21CommandLineTestRunner11runAllTestsEv
   fun:_ZN21CommandLineTestRunner15runAllTestsMainEv
   fun:_ZN21CommandLineTestRunner11RunAllTestsEiPKPKc
   fun:_ZN21CommandLineTestRunner11RunAllTestsEiPPc
}
{
   ignore_new_delete_overloaded_by_cpputest
   Memcheck:Free
   fun:_ZdlPvm
   fun:_ZN40TEST_Strings_LtrimSingleSpaceString_TestD0Ev
   fun:_ZN10UtestShell11destroyTestEP5Utest
   fun:_ZN10UtestShell26runOneTestInCurrentProcessEP10TestPluginR10TestResult
   fun:helperDoRunOneTestInCurrentProcess
   fun:PlatformSpecificSetJmpImplementation
   fun:_ZN10UtestShell10runOneTestEP10TestPluginR10TestResult
   fun:_ZN12TestRegistry11runAllTestsER10TestResult
   fun:_ZN21CommandLineTestRunner11runAllTestsEv
   fun:_ZN21CommandLineTestRunner15runAllTestsMainEv
   fun:_ZN21CommandLineTestRunner11RunAllTestsEiPKPKc
   fun:_ZN21CommandLineTestRunner11RunAllTestsEiPPc
}
{
   ignore_new_delete_overloaded_by_cpputest
   Memcheck:Free
   fun:_ZdlPvm
   fun:_ZN39TEST_Strings_LtrimSingleCharString_TestD0Ev
   fun:_ZN10UtestShell11destroyTestEP5Utest
   fun:_ZN10UtestShell26runOneTestInCurrentProcessEP10TestPluginR10TestResult
   fun:helperDoRunOneTestInCurrentProcess
   fun:PlatformSpecificSetJmpImplementation
   fun:_ZN10UtestShell10runOneTestEP10TestPluginR10TestResult
   fun:_ZN12TestRegistry11runAllTestsER10TestResult
   fun:_ZN21CommandLineTestRunner11runAllTestsEv
   fun:_ZN21CommandLineTestRunner15runAllTestsMainEv
   fun:_ZN21CommandLineTestRunner11RunAllTestsEiPKPKc
   fun:_ZN21CommandLineTestRunner11RunAllTestsEiPPc
}
{
   ignore_new_delete_overloaded_by_cpputest
   Memcheck:Free
   fun:_ZdlPvm
   fun:_ZN44TEST_Strings_LtrimLeavesStringUnchanged_TestD0Ev
   fun:_ZN10UtestShell11destroyTestEP5Utest
   fun:_ZN10UtestShell26runOneTestInCurrentProcessEP10TestPluginR10TestResult
   fun:helperDoRunOneTestInCurrentProcess
   fun:PlatformSpecificSetJmpImplementation
   fun:_ZN10UtestShell10runOneTestEP10TestPluginR10TestResult
   fun:_ZN12TestRegistry11runAllTestsER10TestResult
   fun:_ZN21CommandLineTestRunner11runAllTestsEv
   fun:_ZN21CommandLineTestRunner15runAllTestsMainEv
   fun:_ZN21CommandLineTestRunner11RunAllTestsEiPKPKc
   fun:_ZN21CommandLineTestRunner11RunAllTestsEiPPc
}
{
   ignore_new_delete_overloaded_by_cpputest
   Memcheck:Free
   fun:_ZdlPvm
   fun:_ZN43TEST_Strings_LtrimRemovesLeftEndSpaces_TestD0Ev
   fun:_ZN10UtestShell11destroyTestEP5Utest
   fun:_ZN10UtestShell26runOneTestInCurrentProcessEP10TestPluginR10TestResult
   fun:helperDoRunOneTestInCurrentProcess
   fun:PlatformSpecificSetJmpImplementation
   fun:_ZN10UtestShell10runOneTestEP10TestPluginR10TestResult
   fun:_ZN12TestRegistry11runAllTestsER10TestResult
   fun:_ZN21CommandLineTestRunner11runAllTestsEv
   fun:_ZN21CommandLineTestRunner15runAllTestsMainEv
   fun:_ZN21CommandLineTestRunner11RunAllTestsEiPKPKc
   fun:_ZN21CommandLineTestRunner11RunAllTestsEiPPc
}
{
   ignore_new_delete_overloaded_by_cpputest
   Memcheck:Free
   fun:_ZdlPvm
   fun:_ZN42TEST_Strings_RtrimROSingleSpaceString_TestD0Ev
   fun:_ZN10UtestShell11destroyTestEP5Utest
   fun:_ZN10UtestShell26runOneTestInCurrentProcessEP10TestPluginR10TestResult
   fun:helperDoRunOneTestInCurrentProcess
   fun:PlatformSpecificSetJmpImplementation
   fun:_ZN10UtestShell10runOneTestEP10TestPluginR10TestResult
   fun:_ZN12TestRegistry11runAllTestsER10TestResult
   fun:_ZN21CommandLineTestRunner11runAllTestsEv
   fun:_ZN21CommandLineTestRunner15runAllTestsMainEv
   fun:_ZN21CommandLineTestRunner11RunAllTestsEiPKPKc
   fun:_ZN21CommandLineTestRunner11RunAllTestsEiPPc
}
{
   ignore_new_delete_overloaded_by_cpputest
   Memcheck:Free
   fun:_ZdlPvm
   fun:_ZN41TEST_Strings_RtrimROSingleCharString_TestD0Ev
   fun:_ZN10UtestShell11destroyTestEP5Utest
   fun:_ZN10UtestShell26runOneTestInCurrentProcessEP10TestPluginR10TestResult
   fun:helperDoRunOneTestInCurrentProcess
   fun:PlatformSpecificSetJmpImplementation
   fun:_ZN10UtestShell10runOneTestEP10TestPluginR10TestResult
   fun:_ZN12TestRegistry11runAllTestsER10TestResult
   fun:_ZN21CommandLineTestRunner11runAllTestsEv
   fun:_ZN21CommandLineTestRunner15runAllTestsMainEv
   fun:_ZN21CommandLineTestRunner11RunAllTestsEiPKPKc
   fun:_ZN21CommandLineTestRunner11RunAllTestsEiPPc
}
{
   ignore_new_delete_overloaded_by_cpputest
   Memcheck:Free
   fun:_ZdlPvm
   fun:_ZN46TEST_Strings_RtrimROLeavesStringUnchanged_TestD0Ev
   fun:_ZN10UtestShell11destroyTestEP5Utest
   fun:_ZN10UtestShell26runOneTestInCurrentProcessEP10TestPluginR10TestResult
   fun:helperDoRunOneTestInCurrentProcess
   fun:PlatformSpecificSetJmpImplementation
   fun:_ZN10UtestShell10runOneTestEP10TestPluginR10TestResult
   fun:_ZN12TestRegistry11runAllTestsER10TestResult
   fun:_ZN21CommandLineTestRunner11runAllTestsEv
   fun:_ZN21CommandLineTestRunner15runAllTestsMainEv
   fun:_ZN21CommandLineTestRunner11RunAllTestsEiPKPKc
   fun:_ZN21CommandLineTestRunner11RunAllTestsEiPPc
}
{
   ignore_new_delete_overloaded_by_cpputest
   Memcheck:Free
   fun:_ZdlPvm
   fun:_ZN52TEST_Strings_RtrimROLeavesEmptyStringsUnchanged_TestD0Ev
   fun:_ZN10UtestShell11destroyTestEP5Utest
   fun:_ZN10UtestShell26runOneTestInCurrentProcessEP10TestPluginR10TestResult
   fun:helperDoRunOneTestInCurrentProcess
   fun:PlatformSpecificSetJmpImplementation
   fun:_ZN10UtestShell10runOneTestEP10TestPluginR10TestResult
   fun:_ZN12TestRegistry11runAllTestsER10TestResult
   fun:_ZN21CommandLineTestRunner11runAllTestsEv
   fun:_ZN21CommandLineTestRunner15runAllTestsMainEv
   fun:_ZN21CommandLineTestRunner11RunAllTestsEiPKPKc
   fun:_ZN21CommandLineTestRunner11RunAllTestsEiPPc
}
{
   ignore_new_delete_overloaded_by_cpputest
   Memcheck:Free
   fun:_ZdlPvm
   fun:_ZN46TEST_Strings_RtrimRORemovesRightEndSpaces_TestD0Ev
   fun:_ZN10UtestShell11destroyTestEP5Utest
   fun:_ZN10UtestShell26runOneTestInCurrentProcessEP10TestPluginR10TestResult
   fun:helperDoRunOneTestInCurrentProcess
   fun:PlatformSpecificSetJmpImplementation
   fun:_ZN10UtestShell10runOneTestEP10TestPluginR10TestResult
   fun:_ZN12TestRegistry11runAllTestsER10TestResult
   fun:_ZN21CommandLineTestRunner11runAllTestsEv
   fun:_ZN21CommandLineTestRunner15runAllTestsMainEv
   fun:_ZN21CommandLineTestRunner11RunAllTestsEiPKPKc
   fun:_ZN21CommandLineTestRunner11RunAllTestsEiPPc
}
{
   ignore_new_delete_overloaded_by_cpputest
   Memcheck:Free
   fun:_ZdlPvm
   fun:_ZN40TEST_Strings_RtrimSingleSpaceString_TestD0Ev
   fun:_ZN10UtestShell11destroyTestEP5Utest
   fun:_ZN10UtestShell26runOneTestInCurrentProcessEP10TestPluginR10TestResult
   fun:helperDoRunOneTestInCurrentProcess
   fun:PlatformSpecificSetJmpImplementation
   fun:_ZN10UtestShell10runOneTestEP10TestPluginR10TestResult
   fun:_ZN12TestRegistry11runAllTestsER10TestResult
   fun:_ZN21CommandLineTestRunner11runAllTestsEv
   fun:_ZN21CommandLineTestRunner15runAllTestsMainEv
   fun:_ZN21CommandLineTestRunner11RunAllTestsEiPKPKc
   fun:_ZN21CommandLineTestRunner11RunAllTestsEiPPc
}
{
   ignore_new_delete_overloaded_by_cpputest
   Memcheck:Free
   fun:_ZdlPvm
   fun:_ZN39TEST_Strings_RtrimSingleCharString_TestD0Ev
   fun:_ZN10UtestShell11destroyTestEP5Utest
   fun:_ZN10UtestShell26runOneTestInCurrentProcessEP10TestPluginR10TestResult
   fun:helperDoRunOneTestInCurrentProcess
   fun:PlatformSpecificSetJmpImplementation
   fun:_ZN10UtestShell10runOneTestEP10TestPluginR10TestResult
   fun:_ZN12TestRegistry11runAllTestsER10TestResult
   fun:_ZN21CommandLineTestRunner11runAllTestsEv
   fun:_ZN21CommandLineTestRunner15runAllTestsMainEv
   fun:_ZN21CommandLineTestRunner11RunAllTestsEiPKPKc
   fun:_ZN21CommandLineTestRunner11RunAllTestsEiPPc
}
{
   ignore_new_delete_overloaded_by_cpputest
   Memcheck:Free
   fun:_ZdlPvm
   fun:_ZN44TEST_Strings_RtrimLeavesStringUnchanged_TestD0Ev
   fun:_ZN10UtestShell11destroyTestEP5Utest
   fun:_ZN10UtestShell26runOneTestInCurrentProcessEP10TestPluginR10TestResult
   fun:helperDoRunOneTestInCurrentProcess
   fun:PlatformSpecificSetJmpImplementation
   fun:_ZN10UtestShell10runOneTestEP10TestPluginR10TestResult
   fun:_ZN12TestRegistry11runAllTestsER10TestResult
   fun:_ZN21CommandLineTestRunner11runAllTestsEv
   fun:_ZN21CommandLineTestRunner15runAllTestsMainEv
   fun:_ZN21CommandLineTestRunner11RunAllTestsEiPKPKc
   fun:_ZN21CommandLineTestRunner11RunAllTestsEiPPc
}
